Certificate:
    Data:
        Version: 3 (0x2)
        Serial Number: 1 (0x1)
    Signature Algorithm: sha256WithRSAEncryption
        Issuer: CN=QUICed Server
        Validity
            Not Before: Jan 24 20:31:34 2019 GMT
            Not After : Jan 24 20:31:34 2020 GMT
        Subject: C=US, ST=IL, L=CH, O=QUICed Server, CN=byungjin.cs.northwestern.edu
        Subject Public Key Info:
            Public Key Algorithm: rsaEncryption
                Public-Key: (2048 bit)
                Modulus:
                    00:b5:4e:99:d7:88:6f:0e:ee:64:de:2b:ec:3a:5f:
                    be:4d:07:34:3c:ee:23:62:d7:4d:4d:ac:87:b6:34:
                    5a:7b:74:e6:87:ee:15:72:af:2e:36:1f:6d:5a:95:
                    df:80:9e:69:72:cb:93:3a:d7:ed:71:5f:23:ae:e1:
                    f3:04:fe:66:73:6b:a4:af:99:1f:89:ee:88:d6:4c:
                    6c:c2:78:af:6e:37:08:6d:ac:f5:e3:64:c4:0f:44:
                    6b:e7:6f:82:56:45:16:f8:cc:cc:f4:dd:b6:df:96:
                    91:2d:2e:04:b5:b9:f8:a3:d8:63:0c:3c:f0:23:30:
                    4a:ea:b2:dd:cc:3e:e5:84:a4:19:ef:46:aa:d3:1c:
                    c2:2a:c0:1c:37:ea:ab:c5:1e:07:8f:8a:fa:85:74:
                    ff:16:14:33:0f:2d:12:fe:53:61:aa:2a:48:01:c5:
                    65:0c:0e:cc:45:97:89:6a:75:2b:ed:0d:cf:15:6c:
                    de:34:6f:42:1c:1c:e0:f1:6b:84:89:5d:07:f0:e3:
                    ff:58:e9:56:05:8b:43:0f:39:f3:87:95:d2:c5:26:
                    6b:b7:81:dd:ee:5b:79:ce:70:5a:0f:87:e2:37:34:
                    f0:d2:39:a9:3c:66:35:e9:45:fe:2d:d5:65:5a:73:
                    ff:5c:30:a7:a8:d7:3a:0a:9c:15:f7:35:94:f2:8f:
                    49:8f
                Exponent: 65537 (0x10001)
        X509v3 extensions:
            X509v3 Basic Constraints: critical
                CA:FALSE
            X509v3 Subject Key Identifier: 
                6B:6B:97:54:BE:41:41:5F:6A:60:2D:80:1C:24:B5:15:FE:BE:AE:E8
            X509v3 Authority Key Identifier: 
                keyid:D2:69:70:35:97:44:8C:E6:FF:08:29:CA:F7:CE:48:7A:0A:B1:0A:FB

            X509v3 Extended Key Usage: 
                TLS Web Server Authentication, TLS Web Client Authentication
            X509v3 Subject Alternative Name: 
                DNS:byungjin.cs.northwestern.edu, IP Address:127.0.0.1, IP Address:165.124.183.118
    Signature Algorithm: sha256WithRSAEncryption
         cc:7c:b2:7d:0b:0f:0c:35:30:68:b0:23:d9:e7:3a:3b:66:14:
         8d:26:b8:2c:33:7a:d8:b9:aa:ec:a9:60:72:3c:d9:01:1b:84:
         e8:ba:d4:f2:69:18:f3:c2:ba:d9:0b:83:60:96:09:40:f5:c7:
         cf:0e:3c:97:34:2c:04:01:72:74:f1:1a:a9:fe:39:de:f3:f0:
         b1:e5:3e:a0:11:80:7b:46:1e:ca:59:19:ec:ee:ed:84:18:36:
         30:ea:7d:d3:57:0e:09:1a:8b:e0:4e:e8:89:af:b8:58:e9:0a:
         e4:20:fb:37:aa:fd:a7:7a:c2:4d:74:8b:cb:20:56:50:ba:64:
         23:75:2f:97:30:e8:23:16:f1:6b:1a:8f:66:fa:25:ac:2c:26:
         8c:d8:60:e3:cc:3a:91:6f:de:98:89:44:f9:95:ea:c2:97:63:
         55:12:7d:c2:c0:16:89:56:83:11:ee:7a:fe:7d:bd:81:0b:0b:
         15:32:48:05:d2:09:51:8c:1d:b0:12:c4:fc:5b:c8:45:72:35:
         9f:a3:e3:9f:0a:07:d2:aa:ff:50:94:46:fa:1b:7b:49:4a:a9:
         3b:64:1c:a0:2f:fb:aa:4e:45:12:c2:9d:ee:31:4a:6d:29:5b:
         f7:32:09:74:61:d7:86:45:d6:4d:5a:1d:7c:5f:5b:b4:17:8f:
         a4:19:a9:9a
-----BEGIN CERTIFICATE-----
MIIDnzCCAoegAwIBAgIBATANBgkqhkiG9w0BAQsFADAYMRYwFAYDVQQDDA1RVUlD
ZWQgU2VydmVyMB4XDTE5MDEyNDIwMzEzNFoXDTIwMDEyNDIwMzEzNFowZjELMAkG
A1UEBhMCVVMxCzAJBgNVBAgMAklMMQswCQYDVQQHDAJDSDEWMBQGA1UECgwNUVVJ
Q2VkIFNlcnZlcjElMCMGA1UEAwwcYnl1bmdqaW4uY3Mubm9ydGh3ZXN0ZXJuLmVk
dTCCASIwDQYJKoZIhvcNAQEBBQADggEPADCCAQoCggEBALVOmdeIbw7uZN4r7Dpf
vk0HNDzuI2LXTU2sh7Y0Wnt05ofuFXKvLjYfbVqV34CeaXLLkzrX7XFfI67h8wT+
ZnNrpK+ZH4nuiNZMbMJ4r243CG2s9eNkxA9Ea+dvglZFFvjMzPTdtt+WkS0uBLW5
+KPYYww88CMwSuqy3cw+5YSkGe9GqtMcwirAHDfqq8UeB4+K+oV0/xYUMw8tEv5T
YaoqSAHFZQwOzEWXiWp1K+0NzxVs3jRvQhwc4PFrhIldB/Dj/1jpVgWLQw8584eV
0sUma7eB3e5bec5wWg+H4jc08NI5qTxmNelF/i3VZVpz/1wwp6jXOgqcFfc1lPKP
SY8CAwEAAaOBpTCBojAMBgNVHRMBAf8EAjAAMB0GA1UdDgQWBBRra5dUvkFBX2pg
LYAcJLUV/r6u6DAfBgNVHSMEGDAWgBTSaXA1l0SM5v8IKcr3zkh6CrEK+zAdBgNV
HSUEFjAUBggrBgEFBQcDAQYIKwYBBQUHAwIwMwYDVR0RBCwwKoIcYnl1bmdqaW4u
Y3Mubm9ydGh3ZXN0ZXJuLmVkdYcEfwAAAYcEpXy3djANBgkqhkiG9w0BAQsFAAOC
AQEAzHyyfQsPDDUwaLAj2ec6O2YUjSa4LDN62Lmq7KlgcjzZARuE6LrU8mkY88K6
2QuDYJYJQPXHzw48lzQsBAFydPEaqf453vPwseU+oBGAe0YeylkZ7O7thBg2MOp9
01cOCRqL4E7oia+4WOkK5CD7N6r9p3rCTXSLyyBWULpkI3UvlzDoIxbxaxqPZvol
rCwmjNhg48w6kW/emIlE+ZXqwpdjVRJ9wsAWiVaDEe56/n29gQsLFTJIBdIJUYwd
sBLE/FvIRXI1n6PjnwoH0qr/UJRG+ht7SUqpO2QcoC/7qk5FEsKd7jFKbSlb9zIJ
dGHXhkXWTVodfF9btBePpBmpmg==
-----END CERTIFICATE-----
