Certificate:
    Data:
        Version: 3 (0x2)
        Serial Number: 1 (0x1)
    Signature Algorithm: sha256WithRSAEncryption
        Issuer: CN=QUIC Server Root CA
        Validity
            Not Before: Feb 23 21:52:15 2018 GMT
            Not After : Feb 23 21:52:15 2019 GMT
        Subject: C=US, ST=California, L=Mountain View, O=QUIC Server, CN=127.0.0.1
        Subject Public Key Info:
            Public Key Algorithm: rsaEncryption
                Public-Key: (2048 bit)
                Modulus:
                    00:bd:4f:78:5d:04:0c:3e:67:18:30:22:7e:39:55:
                    d8:7c:d3:88:c2:d5:10:76:53:a1:10:53:61:73:19:
                    b8:04:be:16:9c:aa:44:e1:25:0f:72:b9:7e:4c:f3:
                    14:7f:cb:54:04:0d:86:30:e2:56:85:40:33:54:3c:
                    8d:06:4e:e0:70:ea:d3:a8:fd:ff:62:37:b1:80:e9:
                    42:44:52:c0:f6:82:d3:1a:c6:af:8c:15:3e:05:2d:
                    32:a6:04:ec:8a:39:50:4d:08:1d:22:67:a0:d0:a0:
                    a3:04:ab:09:d8:52:c7:1f:44:50:5e:67:4a:86:66:
                    b7:c9:97:97:35:1b:ec:5c:dd:b5:02:05:1a:65:c4:
                    47:ad:5b:23:b4:e3:58:9a:7c:af:b6:af:89:13:47:
                    29:66:2d:eb:55:8f:d6:e0:3a:72:fd:40:b3:a5:6d:
                    77:1d:a8:bb:b2:26:2b:45:e8:02:55:32:94:b5:a3:
                    81:c3:0a:50:73:b7:e2:47:af:35:4b:5b:e5:b2:08:
                    c0:37:2f:21:62:24:43:27:5a:cb:47:c3:74:9c:11:
                    9d:10:64:9e:eb:28:91:a7:42:18:a1:eb:22:15:52:
                    27:74:b7:42:27:63:fc:b2:6b:39:d9:4d:8f:33:8e:
                    54:cf:0a:38:66:33:d4:f4:82:20:b1:33:e4:9a:9a:
                    c1:a7
                Exponent: 65537 (0x10001)
        X509v3 extensions:
            X509v3 Basic Constraints: critical
                CA:FALSE
            X509v3 Subject Key Identifier: 
                74:05:05:73:D5:3A:C0:C4:57:45:FB:94:1C:1C:51:C0:3C:28:7E:BE
            X509v3 Authority Key Identifier: 
                keyid:39:47:78:5A:5A:66:F4:EC:9F:38:4E:1E:BB:9E:9D:7C:41:89:84:B3

            X509v3 Extended Key Usage: 
                TLS Web Server Authentication, TLS Web Client Authentication
            X509v3 Subject Alternative Name: 
                DNS:www.prashanth-v-tirupachur.com, DNS:prashanth-v-tirupachur.com, DNS:rodrigo918.hopto.org, IP Address:127.0.0.1, IP Address:98.206.137.171, IP Address:10.105.153.227
    Signature Algorithm: sha256WithRSAEncryption
         d4:a3:5e:e2:ac:ee:ad:21:64:61:65:ef:a2:7b:53:70:96:27:
         9b:89:ed:fb:dc:7c:57:61:e6:89:d5:61:d1:4a:b4:b6:58:35:
         e0:ae:dd:b2:1b:67:a5:e3:6c:bf:00:bc:b1:a5:8c:b3:9e:b4:
         96:9c:d4:f5:06:4e:04:10:75:d1:d5:d0:f3:5b:ec:61:62:43:
         44:c8:ea:00:cc:25:f5:51:2f:e7:56:4e:1a:4b:87:83:04:ba:
         9f:a4:19:39:cf:e3:4c:9b:94:7c:d0:c4:1f:b5:72:b3:74:5e:
         73:36:02:c7:18:81:9e:51:4d:61:c0:f9:4a:ef:d3:4a:ba:0d:
         15:d6:f0:6e:7b:dc:16:57:07:cc:ed:8d:4d:50:6d:9e:f3:6e:
         4c:a8:3e:ec:d5:99:09:4e:46:e9:42:04:3d:ad:24:d0:cb:7e:
         45:1f:95:49:86:55:fb:1c:29:8f:88:b3:42:0e:15:ac:1d:6c:
         b5:cf:0e:0f:14:f9:04:b1:59:87:1d:69:7b:03:25:cd:6c:5c:
         a1:52:42:81:9d:82:c9:f4:6d:1f:53:1e:2d:eb:33:78:57:56:
         9b:cc:43:63:e4:9a:db:f6:e0:ab:01:4e:0d:83:df:98:7b:05:
         be:ca:e5:fe:50:be:12:4b:e7:09:54:2d:6f:55:4e:43:d3:7e:
         f3:bf:18:41
-----BEGIN CERTIFICATE-----
MIID3TCCAsWgAwIBAgIBATANBgkqhkiG9w0BAQsFADAeMRwwGgYDVQQDDBNRVUlD
IFNlcnZlciBSb290IENBMB4XDTE4MDIyMzIxNTIxNVoXDTE5MDIyMzIxNTIxNVow
ZDELMAkGA1UEBhMCVVMxEzARBgNVBAgMCkNhbGlmb3JuaWExFjAUBgNVBAcMDU1v
dW50YWluIFZpZXcxFDASBgNVBAoMC1FVSUMgU2VydmVyMRIwEAYDVQQDDAkxMjcu
MC4wLjEwggEiMA0GCSqGSIb3DQEBAQUAA4IBDwAwggEKAoIBAQC9T3hdBAw+Zxgw
In45Vdh804jC1RB2U6EQU2FzGbgEvhacqkThJQ9yuX5M8xR/y1QEDYYw4laFQDNU
PI0GTuBw6tOo/f9iN7GA6UJEUsD2gtMaxq+MFT4FLTKmBOyKOVBNCB0iZ6DQoKME
qwnYUscfRFBeZ0qGZrfJl5c1G+xc3bUCBRplxEetWyO041iafK+2r4kTRylmLetV
j9bgOnL9QLOlbXcdqLuyJitF6AJVMpS1o4HDClBzt+JHrzVLW+WyCMA3LyFiJEMn
WstHw3ScEZ0QZJ7rKJGnQhih6yIVUid0t0InY/yyaznZTY8zjlTPCjhmM9T0giCx
M+SamsGnAgMBAAGjgd8wgdwwDAYDVR0TAQH/BAIwADAdBgNVHQ4EFgQUdAUFc9U6
wMRXRfuUHBxRwDwofr4wHwYDVR0jBBgwFoAUOUd4Wlpm9OyfOE4eu56dfEGJhLMw
HQYDVR0lBBYwFAYIKwYBBQUHAwEGCCsGAQUFBwMCMG0GA1UdEQRmMGSCHnd3dy5w
cmFzaGFudGgtdi10aXJ1cGFjaHVyLmNvbYIacHJhc2hhbnRoLXYtdGlydXBhY2h1
ci5jb22CFHJvZHJpZ285MTguaG9wdG8ub3JnhwR/AAABhwRizomrhwQKaZnjMA0G
CSqGSIb3DQEBCwUAA4IBAQDUo17irO6tIWRhZe+ie1Nwliebie373HxXYeaJ1WHR
SrS2WDXgrt2yG2el42y/ALyxpYyznrSWnNT1Bk4EEHXR1dDzW+xhYkNEyOoAzCX1
US/nVk4aS4eDBLqfpBk5z+NMm5R80MQftXKzdF5zNgLHGIGeUU1hwPlK79NKug0V
1vBue9wWVwfM7Y1NUG2e825MqD7s1ZkJTkbpQgQ9rSTQy35FH5VJhlX7HCmPiLNC
DhWsHWy1zw4PFPkEsVmHHWl7AyXNbFyhUkKBnYLJ9G0fUx4t6zN4V1abzENj5Jrb
9uCrAU4Ng9+YewW+yuX+UL4SS+cJVC1vVU5D037zvxhB
-----END CERTIFICATE-----
