Certificate:
    Data:
        Version: 3 (0x2)
        Serial Number: 1 (0x1)
    Signature Algorithm: sha256WithRSAEncryption
        Issuer: CN=Jins Server Root CA (QUIC)
        Validity
            Not Before: Jul 29 19:10:50 2018 GMT
            Not After : Jul  3 19:10:50 2023 GMT
        Subject: C=US, ST=IL, L=Evanston, O=Jins Server, CN=127.0.0.1
        Subject Public Key Info:
            Public Key Algorithm: rsaEncryption
                Public-Key: (2048 bit)
                Modulus:
                    00:f0:e7:b6:15:7b:c9:88:91:cb:16:77:3b:9c:17:
                    23:66:5f:50:84:02:1f:60:f8:bc:c6:ef:3d:41:33:
                    ee:1d:7c:5c:cb:28:b7:80:c9:98:a3:94:d6:b6:e2:
                    55:87:34:e6:a8:31:c6:ae:f0:fa:fb:47:bc:d0:04:
                    e9:a0:51:1a:a0:f1:5c:e6:f6:ed:d1:47:07:ad:98:
                    58:4b:2e:e8:28:49:c3:8b:25:9f:98:56:76:58:30:
                    1f:2d:00:f2:0a:3f:28:25:dd:ac:c8:67:41:43:95:
                    bd:51:d5:a9:dd:77:ca:66:fe:a1:39:6b:2a:77:b9:
                    b3:dd:c2:04:65:56:4e:2f:34:9e:25:4e:83:57:f6:
                    95:63:cc:77:75:dd:c2:2d:bf:15:f2:16:e4:2b:60:
                    51:41:ed:4f:43:85:dc:a2:70:7d:51:13:4b:6c:b1:
                    c7:db:69:af:9c:43:04:15:15:12:c5:db:a0:64:2a:
                    26:51:e0:aa:5e:75:03:ec:76:bc:ef:47:77:fd:97:
                    7b:eb:28:d1:e0:31:46:f9:bf:3d:1f:7a:09:3e:c4:
                    51:f2:89:70:c7:1a:f6:b1:21:51:68:f0:71:0a:b3:
                    9e:6f:de:69:70:26:3a:89:d3:e9:78:15:aa:85:e9:
                    8f:79:57:22:5d:0d:2e:4a:f8:9e:0f:fa:6c:06:61:
                    f2:f9
                Exponent: 65537 (0x10001)
        X509v3 extensions:
            X509v3 Basic Constraints: critical
                CA:FALSE
            X509v3 Subject Key Identifier: 
                F6:05:7B:23:E5:2E:F7:F5:4F:34:ED:AF:0C:74:11:80:28:C5:DC:E1
            X509v3 Authority Key Identifier: 
                keyid:4C:20:EB:A8:3D:93:6C:71:D6:C5:17:15:51:B0:CC:78:A3:4D:EA:EF

            X509v3 Extended Key Usage: 
                TLS Web Server Authentication, TLS Web Client Authentication
            X509v3 Subject Alternative Name: 
                IP Address:127.0.0.1, IP Address:165.124.183.118
    Signature Algorithm: sha256WithRSAEncryption
         30:3a:e0:7e:da:9c:88:df:fd:20:d7:37:29:ed:6b:fa:f7:e0:
         6b:3e:02:0b:d0:99:86:9e:e6:a3:65:e3:64:da:a8:0c:68:e5:
         5f:d6:2f:9b:5f:b6:e8:e4:3b:76:55:da:1f:0d:e4:a5:fa:95:
         da:1a:f0:a3:de:ab:17:6c:46:6f:5c:fe:50:f0:75:7d:4b:f2:
         e0:cf:52:cc:8b:d9:b7:1c:c9:28:f6:c1:1f:2d:4c:6d:5f:32:
         04:69:a0:85:94:3e:15:65:d8:c8:96:09:0f:f1:e7:eb:41:f4:
         25:4d:a3:9c:ce:18:0d:14:9f:e0:6d:66:8d:77:ba:1d:9b:c7:
         df:e2:fe:f7:15:70:cb:00:96:98:97:a1:fb:e1:8a:ee:a0:48:
         98:fe:43:d0:c3:5b:ca:d7:ff:b1:2d:c5:26:e8:39:9b:e9:37:
         03:29:09:a3:26:4d:b5:2a:d4:4b:f3:b8:12:54:8f:3d:c1:e1:
         9b:02:2f:ed:36:5a:73:1e:63:c9:28:34:6e:a3:9f:e4:87:95:
         93:0a:27:e3:6f:61:08:5e:6e:0f:08:bd:e2:16:74:10:fa:2c:
         65:c8:c1:19:5d:87:3e:07:9d:4f:a0:0e:37:89:ee:44:d7:13:
         20:1e:48:11:45:e7:98:ec:c5:0a:bb:1a:b5:e9:30:e2:2d:61:
         0b:a1:e6:1f
-----BEGIN CERTIFICATE-----
MIIDfzCCAmegAwIBAgIBATANBgkqhkiG9w0BAQsFADAlMSMwIQYDVQQDDBpKaW5z
IFNlcnZlciBSb290IENBIChRVUlDKTAeFw0xODA3MjkxOTEwNTBaFw0yMzA3MDMx
OTEwNTBaMFcxCzAJBgNVBAYTAlVTMQswCQYDVQQIDAJJTDERMA8GA1UEBwwIRXZh
bnN0b24xFDASBgNVBAoMC0ppbnMgU2VydmVyMRIwEAYDVQQDDAkxMjcuMC4wLjEw
ggEiMA0GCSqGSIb3DQEBAQUAA4IBDwAwggEKAoIBAQDw57YVe8mIkcsWdzucFyNm
X1CEAh9g+LzG7z1BM+4dfFzLKLeAyZijlNa24lWHNOaoMcau8Pr7R7zQBOmgURqg
8Vzm9u3RRwetmFhLLugoScOLJZ+YVnZYMB8tAPIKPygl3azIZ0FDlb1R1andd8pm
/qE5ayp3ubPdwgRlVk4vNJ4lToNX9pVjzHd13cItvxXyFuQrYFFB7U9DhdyicH1R
E0tsscfbaa+cQwQVFRLF26BkKiZR4KpedQPsdrzvR3f9l3vrKNHgMUb5vz0fegk+
xFHyiXDHGvaxIVFo8HEKs55v3mlwJjqJ0+l4FaqF6Y95VyJdDS5K+J4P+mwGYfL5
AgMBAAGjgYcwgYQwDAYDVR0TAQH/BAIwADAdBgNVHQ4EFgQU9gV7I+Uu9/VPNO2v
DHQRgCjF3OEwHwYDVR0jBBgwFoAUTCDrqD2TbHHWxRcVUbDMeKNN6u8wHQYDVR0l
BBYwFAYIKwYBBQUHAwEGCCsGAQUFBwMCMBUGA1UdEQQOMAyHBH8AAAGHBKV8t3Yw
DQYJKoZIhvcNAQELBQADggEBADA64H7anIjf/SDXNynta/r34Gs+AgvQmYae5qNl
42TaqAxo5V/WL5tftujkO3ZV2h8N5KX6ldoa8KPeqxdsRm9c/lDwdX1L8uDPUsyL
2bccySj2wR8tTG1fMgRpoIWUPhVl2MiWCQ/x5+tB9CVNo5zOGA0Un+BtZo13uh2b
x9/i/vcVcMsAlpiXofvhiu6gSJj+Q9DDW8rX/7EtxSboOZvpNwMpCaMmTbUq1Evz
uBJUjz3B4ZsCL+02WnMeY8koNG6jn+SHlZMKJ+NvYQhebg8IveIWdBD6LGXIwRld
hz4HnU+gDjeJ7kTXEyAeSBFF55jsxQq7GrXpMOItYQuh5h8=
-----END CERTIFICATE-----
