Certificate:
    Data:
        Version: 3 (0x2)
        Serial Number: 1 (0x1)
    Signature Algorithm: sha256WithRSAEncryption
        Issuer: CN=QUIC Server Root CA
        Validity
            Not Before: Oct  3 13:15:55 2018 GMT
            Not After : Oct  3 13:15:55 2019 GMT
        Subject: C=ES, ST=Cat, L=BCN, O=QUIC Server, CN=127.0.0.1
        Subject Public Key Info:
            Public Key Algorithm: rsaEncryption
                Public-Key: (2048 bit)
                Modulus:
                    00:c2:30:4c:cf:2e:72:e9:d6:40:2c:ae:5a:d2:4d:
                    b7:ae:5f:08:c4:52:40:31:1c:91:07:cd:5a:47:b1:
                    6e:e3:16:ff:e1:a7:04:2c:bc:77:e1:67:bf:eb:c2:
                    71:e2:aa:44:64:8a:ca:a2:51:92:e2:d4:a1:78:87:
                    05:11:92:ce:d3:7d:dc:59:e6:0b:64:2e:aa:7b:58:
                    9d:ee:9f:e3:0d:10:d9:ce:02:ee:27:3c:6e:4c:b5:
                    99:db:24:f0:34:c4:6c:63:e8:6c:51:a6:80:42:60:
                    31:fe:eb:5e:83:6c:9d:87:0c:32:7f:44:e4:3d:0c:
                    f2:79:de:75:68:7f:cc:99:26:76:f0:d5:db:2c:29:
                    df:a3:c5:92:7b:cb:8f:b3:da:29:8b:04:d0:0f:4d:
                    52:5a:68:e3:3f:d9:d8:0d:55:3e:1f:3d:44:7d:08:
                    38:ed:96:dd:7c:02:2a:c5:83:58:b3:55:88:b6:ff:
                    97:de:87:3f:5a:26:fe:52:6a:0c:04:b5:21:8c:1b:
                    f6:26:2b:0b:47:eb:c6:2b:4f:0b:43:2f:1a:62:a5:
                    35:5a:46:40:b9:61:92:ee:70:a8:28:af:45:18:47:
                    f2:af:1d:96:18:95:c8:15:c5:84:f8:67:aa:0f:91:
                    76:86:7d:93:7f:5c:02:bb:64:67:2e:dc:c6:bc:47:
                    a8:d7
                Exponent: 65537 (0x10001)
        X509v3 extensions:
            X509v3 Basic Constraints: critical
                CA:FALSE
            X509v3 Subject Key Identifier: 
                DC:C3:6E:01:2F:45:CE:65:A3:E7:C4:C3:0C:52:50:C4:3C:8C:AE:EC
            X509v3 Authority Key Identifier: 
                keyid:E5:2C:70:99:6A:C4:12:E9:5B:A2:61:D2:97:5F:07:A4:B9:0D:63:73

            X509v3 Extended Key Usage: 
                TLS Web Server Authentication, TLS Web Client Authentication
            X509v3 Subject Alternative Name: 
                IP Address:127.0.0.1, IP Address:10.95.137.54
    Signature Algorithm: sha256WithRSAEncryption
         7a:8f:de:b4:b6:e8:eb:d1:33:7b:79:9b:e1:87:75:05:bb:10:
         21:80:fd:96:ed:bc:3b:be:82:b0:72:44:b3:57:a0:d5:39:f1:
         7b:3a:66:37:31:5f:87:2c:28:2b:8e:6e:c8:8f:ef:59:08:82:
         fe:48:62:02:17:3e:72:bc:92:af:5a:30:10:f9:ed:5c:30:11:
         29:cd:46:b5:3d:7f:04:21:8e:c8:49:ac:dd:51:43:c5:8a:ef:
         b3:2f:1c:4f:97:9c:6e:a1:23:c0:a6:ad:64:ac:af:29:0e:7a:
         f7:d0:79:56:c7:91:82:2e:58:13:ff:4b:af:49:69:b0:44:6f:
         58:a0:62:1c:96:84:07:c1:be:b2:a9:68:e3:2a:91:f0:9f:90:
         1e:93:b3:e2:06:14:88:e7:12:2d:ee:69:14:34:d6:02:02:c4:
         fa:26:88:95:a8:64:ee:15:94:cf:fd:27:e1:a3:f8:85:b3:91:
         54:51:57:8e:d8:f6:2b:bc:73:6b:60:5c:49:f6:9b:40:54:81:
         e1:c8:e6:6c:95:d4:93:44:09:ba:3e:ce:94:13:33:c5:cb:fb:
         e3:1d:01:c9:f9:8d:84:62:5e:f9:60:1c:60:ff:44:6d:7e:7d:
         cf:82:51:48:a8:f6:cc:b3:c8:d1:97:89:60:f5:aa:ee:cd:7e:
         1d:9b:5f:c4
-----BEGIN CERTIFICATE-----
MIIDdDCCAlygAwIBAgIBATANBgkqhkiG9w0BAQsFADAeMRwwGgYDVQQDDBNRVUlD
IFNlcnZlciBSb290IENBMB4XDTE4MTAwMzEzMTU1NVoXDTE5MTAwMzEzMTU1NVow
UzELMAkGA1UEBhMCRVMxDDAKBgNVBAgMA0NhdDEMMAoGA1UEBwwDQkNOMRQwEgYD
VQQKDAtRVUlDIFNlcnZlcjESMBAGA1UEAwwJMTI3LjAuMC4xMIIBIjANBgkqhkiG
9w0BAQEFAAOCAQ8AMIIBCgKCAQEAwjBMzy5y6dZALK5a0k23rl8IxFJAMRyRB81a
R7Fu4xb/4acELLx34We/68Jx4qpEZIrKolGS4tSheIcFEZLO033cWeYLZC6qe1id
7p/jDRDZzgLuJzxuTLWZ2yTwNMRsY+hsUaaAQmAx/uteg2ydhwwyf0TkPQzyed51
aH/MmSZ28NXbLCnfo8WSe8uPs9opiwTQD01SWmjjP9nYDVU+Hz1EfQg47ZbdfAIq
xYNYs1WItv+X3oc/Wib+UmoMBLUhjBv2JisLR+vGK08LQy8aYqU1WkZAuWGS7nCo
KK9FGEfyrx2WGJXIFcWE+GeqD5F2hn2Tf1wCu2RnLtzGvEeo1wIDAQABo4GHMIGE
MAwGA1UdEwEB/wQCMAAwHQYDVR0OBBYEFNzDbgEvRc5lo+fEwwxSUMQ8jK7sMB8G
A1UdIwQYMBaAFOUscJlqxBLpW6Jh0pdfB6S5DWNzMB0GA1UdJQQWMBQGCCsGAQUF
BwMBBggrBgEFBQcDAjAVBgNVHREEDjAMhwR/AAABhwQKX4k2MA0GCSqGSIb3DQEB
CwUAA4IBAQB6j960tujr0TN7eZvhh3UFuxAhgP2W7bw7voKwckSzV6DVOfF7OmY3
MV+HLCgrjm7Ij+9ZCIL+SGICFz5yvJKvWjAQ+e1cMBEpzUa1PX8EIY7ISazdUUPF
iu+zLxxPl5xuoSPApq1krK8pDnr30HlWx5GCLlgT/0uvSWmwRG9YoGIcloQHwb6y
qWjjKpHwn5Aek7PiBhSI5xIt7mkUNNYCAsT6JoiVqGTuFZTP/Sfho/iFs5FUUVeO
2PYrvHNrYFxJ9ptAVIHhyOZsldSTRAm6Ps6UEzPFy/vjHQHJ+Y2EYl75YBxg/0Rt
fn3PglFIqPbMs8jRl4lg9aruzX4dm1/E
-----END CERTIFICATE-----
